; Function Attrs: mustprogress nounwind uwtable
define dso_local void @_ZN4i18n12phonenumbers12NumberFormatD0Ev(ptr noundef nonnull align 8 dereferenceable(88) %0) unnamed_addr #6 align 2 personality ptr @__gxx_personality_v0 {
  invoke void @_ZN4i18n12phonenumbers12NumberFormat10SharedDtorEv(ptr noundef nonnull align 8 dereferenceable(88) %0)
          to label %2 unwind label %14

2:                                                ; preds = %1
  %3 = getelementptr inbounds i8, ptr %0, i64 8
  %4 = load ptr, ptr %3, align 8
  %5 = ptrtoint ptr %4 to i64
  %6 = and i64 %5, 1
  %.not.i.i = icmp eq i64 %6, 0
  br i1 %.not.i.i, label %_ZN4i18n12phonenumbers12NumberFormatD2Ev.exit, label %7

7:                                                ; preds = %2
  %8 = and i64 %5, -2
  %9 = inttoptr i64 %8 to ptr
  %10 = load ptr, ptr %9, align 8
  %11 = icmp eq ptr %10, null
  br i1 %11, label %12, label %_ZN4i18n12phonenumbers12NumberFormatD2Ev.exit

12:                                               ; preds = %7
  %13 = getelementptr inbounds i8, ptr %9, i64 8
  tail call void @_ZNSt7__cxx1112basic_stringIcSt11char_traitsIcESaIcEED1Ev(ptr noundef nonnull align 8 dereferenceable(32) %13) #21
  tail call void @_ZdlPv(ptr noundef nonnull %9) #23
  br label %_ZN4i18n12phonenumbers12NumberFormatD2Ev.exit

14:                                               ; preds = %1
  %15 = landingpad { ptr, i32 }
          catch ptr null
  %16 = extractvalue { ptr, i32 } %15, 0
  tail call void @__clang_call_terminate(ptr %16) #24
  unreachable

_ZN4i18n12phonenumbers12NumberFormatD2Ev.exit:    ; preds = %2, %7, %12
  %17 = getelementptr inbounds i8, ptr %0, i64 24
  tail call void @_ZN6google8protobuf16RepeatedPtrFieldINSt7__cxx1112basic_stringIcSt11char_traitsIcESaIcEEEED1Ev(ptr noundef nonnull align 8 dereferenceable(24) %17) #21
  tail call void @_ZdlPv(ptr noundef nonnull %0) #23
  ret void
}